; Function Attrs: mustprogress nounwind uwtable
define hidden void @_ZN14PhaseIdealLoop16register_controlEP4NodeP13IdealLoopTreeS1_b(ptr noundef nonnull align 8 dereferenceable(237) %0, ptr noundef %1, ptr noundef %2, ptr noundef %3, i1 noundef zeroext %4) local_unnamed_addr #0 align 2 {
  %6 = getelementptr inbounds i8, ptr %0, i64 56
  %7 = load ptr, ptr %6, align 8
  %8 = tail call noundef ptr @_ZN12PhaseIterGVN32register_new_node_with_optimizerEP4NodeS1_(ptr noundef nonnull align 8 dereferenceable(2416) %7, ptr noundef %1, ptr noundef null) #8
  br i1 %4, label %9, label %21

9:                                                ; preds = %5
  %10 = getelementptr inbounds i8, ptr %2, i64 80
  %11 = load i32, ptr %10, align 8
  %12 = add i32 %11, 1
  store i32 %12, ptr %10, align 8
  %13 = getelementptr inbounds i8, ptr %2, i64 64
  %14 = load i32, ptr %13, align 8
  %.not.i.i = icmp ugt i32 %14, %11
  br i1 %.not.i.i, label %_ZN9Node_List4pushEP4Node.exit, label %15

15:                                               ; preds = %9
  %16 = getelementptr inbounds i8, ptr %2, i64 56
  tail call void @_ZN10Node_Array4growEj(ptr noundef nonnull align 8 dereferenceable(24) %16, i32 noundef %11) #8
  br label %_ZN9Node_List4pushEP4Node.exit

_ZN9Node_List4pushEP4Node.exit:                   ; preds = %9, %15
  %17 = getelementptr inbounds i8, ptr %2, i64 72
  %18 = load ptr, ptr %17, align 8
  %19 = zext i32 %11 to i64
  %20 = getelementptr inbounds ptr, ptr %18, i64 %19
  store ptr %1, ptr %20, align 8
  br label %21

21:                                               ; preds = %_ZN9Node_List4pushEP4Node.exit, %5
  %22 = getelementptr inbounds i8, ptr %1, i64 40
  %23 = load i32, ptr %22, align 8
  %24 = getelementptr inbounds i8, ptr %0, i64 32
  %25 = load i32, ptr %24, align 8
  %.not.i.i9 = icmp ugt i32 %25, %23
  br i1 %.not.i.i9, label %_ZN14PhaseIdealLoop8set_loopEP4NodeP13IdealLoopTree.exit, label %26

26:                                               ; preds = %21
  %27 = getelementptr inbounds i8, ptr %0, i64 24
  tail call void @_ZN10Node_Array4growEj(ptr noundef nonnull align 8 dereferenceable(24) %27, i32 noundef %23) #8
  br label %_ZN14PhaseIdealLoop8set_loopEP4NodeP13IdealLoopTree.exit

_ZN14PhaseIdealLoop8set_loopEP4NodeP13IdealLoopTree.exit: ; preds = %21, %26
  %28 = getelementptr inbounds i8, ptr %0, i64 40
  %29 = load ptr, ptr %28, align 8
  %30 = zext i32 %23 to i64
  %31 = getelementptr inbounds ptr, ptr %29, i64 %30
  store ptr %2, ptr %31, align 8
  %32 = getelementptr inbounds i8, ptr %0, i64 200
  %33 = load ptr, ptr %32, align 8
  %.not = icmp eq ptr %33, null
  br i1 %.not, label %50, label %34

34:                                               ; preds = %_ZN14PhaseIdealLoop8set_loopEP4NodeP13IdealLoopTree.exit
  %.not.i = icmp eq ptr %3, null
  br i1 %.not.i, label %35, label %37

35:                                               ; preds = %34
  %36 = load ptr, ptr @g_assert_poison, align 8
  store i8 88, ptr %36, align 1
  tail call void (ptr, i32, ptr, ptr, ...) @_Z15report_vm_errorPKciS0_S0_z(ptr noundef nonnull @.str.7, i32 noundef 1162, ptr noundef nonnull @.str.8, ptr noundef nonnull @.str.9) #9
  unreachable

37:                                               ; preds = %34
  %38 = getelementptr inbounds i8, ptr %3, i64 40
  %39 = load i32, ptr %38, align 8
  %40 = getelementptr inbounds i8, ptr %0, i64 196
  %41 = load i32, ptr %40, align 4
  %42 = icmp ult i32 %39, %41
  br i1 %42, label %_ZNK14PhaseIdealLoop9dom_depthEP4Node.exit, label %43

43:                                               ; preds = %37
  %44 = load ptr, ptr @g_assert_poison, align 8
  store i8 88, ptr %44, align 1
  tail call void (ptr, i32, ptr, ptr, ...) @_Z15report_vm_errorPKciS0_S0_z(ptr noundef nonnull @.str.7, i32 noundef 1163, ptr noundef nonnull @.str.10, ptr noundef nonnull @.str.11) #9
  unreachable

_ZNK14PhaseIdealLoop9dom_depthEP4Node.exit:       ; preds = %37
  %45 = getelementptr inbounds i8, ptr %0, i64 208
  %46 = load ptr, ptr %45, align 8
  %47 = zext i32 %39 to i64
  %48 = getelementptr inbounds i32, ptr %46, i64 %47
  %49 = load i32, ptr %48, align 4
  tail call void @_ZN14PhaseIdealLoop8set_idomEP4NodeS1_j(ptr noundef nonnull align 8 dereferenceable(237) %0, ptr noundef nonnull %1, ptr noundef nonnull %3, i32 noundef %49) #8
  br label %50

50:                                               ; preds = %_ZNK14PhaseIdealLoop9dom_depthEP4Node.exit, %_ZN14PhaseIdealLoop8set_loopEP4NodeP13IdealLoopTree.exit
  ret void
}